; Function Attrs: mustprogress uwtable
define dso_local void @_ZN4base11StringValueC2ERKNSt7__cxx1112basic_stringItNS_20string16_char_traitsESaItEEE(ptr noundef nonnull align 8 dereferenceable(48) %this, ptr noundef nonnull align 8 dereferenceable(32) %in_value) unnamed_addr #3 align 2 personality ptr @__gxx_personality_v0 {
entry:
  %agg.tmp = alloca %"class.base::BasicStringPiece.3", align 8
  %type_.i = getelementptr inbounds i8, ptr %this, i64 8
  store i32 4, ptr %type_.i, align 8
  store ptr getelementptr inbounds ({ [17 x ptr] }, ptr @_ZTVN4base11StringValueE, i64 0, i32 0, i64 2), ptr %this, align 8
  call void @_ZN4base16BasicStringPieceINSt7__cxx1112basic_stringItNS_20string16_char_traitsESaItEEEEC1ERKS5_(ptr noundef nonnull align 8 dereferenceable(16) %agg.tmp, ptr noundef nonnull align 8 dereferenceable(32) %in_value)
  %value_ = getelementptr inbounds i8, ptr %this, i64 16
  %0 = load ptr, ptr %agg.tmp, align 8
  %1 = getelementptr inbounds i8, ptr %agg.tmp, i64 8
  %2 = load i64, ptr %1, align 8
  call void @_ZN4base11UTF16ToUTF8ENS_16BasicStringPieceINSt7__cxx1112basic_stringItNS_20string16_char_traitsESaItEEEEE(ptr nonnull sret(%"class.std::__cxx11::basic_string") align 8 %value_, ptr %0, i64 %2)
  ret void
}